target datalayout = "e-m:e-p270:32:32-p271:32:32-p272:64:64-i64:64-i128:128-f80:128-n8:16:32:64-S128"
target triple = "x86_64-pc-linux-gnu"

%"struct.cv::softfloat" = type { i32 }

; Function Attrs: mustprogress nounwind uwtable
define internal void @_ZN2cvL10raiseFlagsEh(i8 noundef zeroext %0) #1 {
  %2 = alloca i8, align 1
  store i8 %0, ptr %2, align 1
  ret void
}

; Function Attrs: mustprogress nounwind uwtable
define internal noundef zeroext i1 @_ZN2cvL6f32_eqENS_9softfloatES0_(ptr noundef %0, ptr noundef %1) #1 {
  %3 = alloca i1, align 1
  %4 = alloca ptr, align 8
  %5 = alloca ptr, align 8
  %6 = alloca i64, align 8
  %7 = alloca i64, align 8
  store ptr %0, ptr %4, align 8
  store ptr %1, ptr %5, align 8
  %8 = getelementptr inbounds %"struct.cv::softfloat", ptr %0, i32 0, i32 0
  %9 = load i32, ptr %8, align 4
  %10 = zext i32 %9 to i64
  store i64 %10, ptr %6, align 8
  %11 = getelementptr inbounds %"struct.cv::softfloat", ptr %1, i32 0, i32 0
  %12 = load i32, ptr %11, align 4
  %13 = zext i32 %12 to i64
  store i64 %13, ptr %7, align 8
  %14 = load i64, ptr %6, align 8
  %15 = xor i64 %14, -1
  %16 = and i64 %15, 2139095040
  %17 = icmp eq i64 %16, 0
  br i1 %17, label %18, label %22

18:                                               ; preds = %2
  %19 = load i64, ptr %6, align 8
  %20 = and i64 %19, 8388607
  %21 = icmp ne i64 %20, 0
  br i1 %21, label %31, label %22

22:                                               ; preds = %18, %2
  %23 = load i64, ptr %7, align 8
  %24 = xor i64 %23, -1
  %25 = and i64 %24, 2139095040
  %26 = icmp eq i64 %25, 0
  br i1 %26, label %27, label %49

27:                                               ; preds = %22
  %28 = load i64, ptr %7, align 8
  %29 = and i64 %28, 8388607
  %30 = icmp ne i64 %29, 0
  br i1 %30, label %31, label %49

31:                                               ; preds = %27, %18
  %32 = load i64, ptr %6, align 8
  %33 = and i64 %32, 2143289344
  %34 = icmp eq i64 %33, 2139095040
  br i1 %34, label %35, label %39

35:                                               ; preds = %31
  %36 = load i64, ptr %6, align 8
  %37 = and i64 %36, 4194303
  %38 = icmp ne i64 %37, 0
  br i1 %38, label %47, label %39

39:                                               ; preds = %35, %31
  %40 = load i64, ptr %7, align 8
  %41 = and i64 %40, 2143289344
  %42 = icmp eq i64 %41, 2139095040
  br i1 %42, label %43, label %48

43:                                               ; preds = %39
  %44 = load i64, ptr %7, align 8
  %45 = and i64 %44, 4194303
  %46 = icmp ne i64 %45, 0
  br i1 %46, label %47, label %48

47:                                               ; preds = %43, %35
  call void @_ZN2cvL10raiseFlagsEh(i8 noundef zeroext 16)
  br label %48

48:                                               ; preds = %47, %43, %39
  store i1 false, ptr %3, align 1
  br label %63

49:                                               ; preds = %27, %22
  %50 = load i64, ptr %6, align 8
  %51 = load i64, ptr %7, align 8
  %52 = icmp eq i64 %50, %51
  br i1 %52, label %61, label %53

53:                                               ; preds = %49
  %54 = load i64, ptr %6, align 8
  %55 = load i64, ptr %7, align 8
  %56 = or i64 %54, %55
  %57 = shl i64 %56, 1
  %58 = trunc i64 %57 to i32
  %59 = icmp ne i32 %58, 0
  %60 = xor i1 %59, true
  br label %61

61:                                               ; preds = %53, %49
  %62 = phi i1 [ true, %49 ], [ %60, %53 ]
  store i1 %62, ptr %3, align 1
  br label %63

63:                                               ; preds = %61, %48
  %64 = load i1, ptr %3, align 1
  ret i1 %64
}

; Function Attrs: mustprogress nounwind uwtable
define linkonce_odr hidden void @_ZN2cv9softfloatC2ERKS0_(ptr noundef nonnull align 4 dereferenceable(4) %0, ptr noundef nonnull align 4 dereferenceable(4) %1) unnamed_addr #1 comdat align 2 {
  %3 = alloca ptr, align 8
  %4 = alloca ptr, align 8
  store ptr %0, ptr %3, align 8
  store ptr %1, ptr %4, align 8
  %5 = load ptr, ptr %3, align 8
  %6 = load ptr, ptr %4, align 8
  %7 = getelementptr inbounds %"struct.cv::softfloat", ptr %6, i32 0, i32 0
  %8 = load i32, ptr %7, align 4
  %9 = getelementptr inbounds %"struct.cv::softfloat", ptr %5, i32 0, i32 0
  store i32 %8, ptr %9, align 4
  ret void
}

; Function Attrs: mustprogress uwtable
define noundef zeroext i1 @_ZNK2cv9softfloateqERKS0_(ptr noundef nonnull align 4 dereferenceable(4) %0, ptr noundef nonnull align 4 dereferenceable(4) %1) #0 align 2 {
  %3 = alloca ptr, align 8
  %4 = alloca ptr, align 8
  %5 = alloca %"struct.cv::softfloat", align 4
  %6 = alloca %"struct.cv::softfloat", align 4
  store ptr %0, ptr %3, align 8
  store ptr %1, ptr %4, align 8
  %7 = load ptr, ptr %3, align 8
  call void @_ZN2cv9softfloatC2ERKS0_(ptr noundef nonnull align 4 dereferenceable(4) %5, ptr noundef nonnull align 4 dereferenceable(4) %7)
  %8 = load ptr, ptr %4, align 8
  call void @_ZN2cv9softfloatC2ERKS0_(ptr noundef nonnull align 4 dereferenceable(4) %6, ptr noundef nonnull align 4 dereferenceable(4) %8)
  %9 = call noundef zeroext i1 @_ZN2cvL6f32_eqENS_9softfloatES0_(ptr noundef %5, ptr noundef %6)
  ret i1 %9
}