; Function Attrs: mustprogress nofree norecurse nosync nounwind willreturn memory(argmem: read) uwtable
define noundef zeroext i1 @_ZNK2cv9softfloateqERKS0_(ptr nocapture noundef nonnull readonly align 4 dereferenceable(4) %0, ptr nocapture noundef nonnull readonly align 4 dereferenceable(4) %1) local_unnamed_addr #4 align 2 {
  %3 = load i32, ptr %0, align 4
  %4 = load i32, ptr %1, align 4
  %5 = zext i32 %3 to i64
  %6 = and i64 %5, 2139095040
  %7 = icmp ne i64 %6, 2139095040
  %8 = and i64 %5, 8388607
  %.not.i = icmp eq i64 %8, 0
  %or.cond.i = or i1 %7, %.not.i
  br i1 %or.cond.i, label %9, label %_ZN2cvL6f32_eqENS_9softfloatES0_.exit

9:                                                ; preds = %2
  %10 = zext i32 %4 to i64
  %11 = and i64 %10, 2139095040
  %12 = icmp ne i64 %11, 2139095040
  %13 = and i64 %10, 8388607
  %.not14.i = icmp eq i64 %13, 0
  %or.cond18.i = or i1 %12, %.not14.i
  br i1 %or.cond18.i, label %14, label %_ZN2cvL6f32_eqENS_9softfloatES0_.exit

14:                                               ; preds = %9
  %15 = icmp eq i32 %3, %4
  %16 = or i32 %4, %3
  %.mask.i = and i32 %16, 2147483647
  %.not15.i = icmp eq i32 %.mask.i, 0
  %17 = select i1 %15, i1 true, i1 %.not15.i
  br label %_ZN2cvL6f32_eqENS_9softfloatES0_.exit

_ZN2cvL6f32_eqENS_9softfloatES0_.exit:            ; preds = %2, %9, %14
  %.0.i = phi i1 [ %17, %14 ], [ false, %9 ], [ false, %2 ]
  ret i1 %.0.i
}